(dp0
S'DelayMode'
p1
NsS'wavs_volume'
p2
F0.0
sS'enable_delay'
p3
I01
sS'wav_list'
p4
(lp5
S'D:\\Rubidium\\Corpus\\Alexa\\Alexa_419_-23LUFS\\002a323296ca5e8952e613ee180621cb.wav'
p6
aS'D:\\Rubidium\\Corpus\\Alexa\\Alexa_419_-23LUFS\\002ddcc9b59a1165ae3f64093fb88606.wav'
p7
aS'D:\\Rubidium\\Corpus\\Alexa\\Alexa_419_-23LUFS\\007e7d613dc185d145866a11724db8cd.wav'
p8
aS'D:\\Rubidium\\Corpus\\Alexa\\Alexa_419_-23LUFS\\0128f7dde57a3554264061cf79c4f1dc.wav'
p9
aS'D:\\Rubidium\\Corpus\\Alexa\\Alexa_419_-23LUFS\\0269bfb14d366c0fbb68a95f4193c3d2.wav'
p10
aS'D:\\Rubidium\\Corpus\\Alexa\\Alexa_419_-23LUFS\\02efd67d1d6a35bd25fb596439ded717.wav'
p11
aS'D:\\Rubidium\\Corpus\\Alexa\\Alexa_419_-23LUFS\\031ebe3ac57ee2b4044545c47700ca5e.wav'
p12
aS'D:\\Rubidium\\Corpus\\Alexa\\Alexa_419_-23LUFS\\0358afe0e63e2ffa533c42f3c9582455.wav'
p13
aS'D:\\Rubidium\\Corpus\\Alexa\\Alexa_419_-23LUFS\\04938358a2711583f86e360c52fedd81.wav'
p14
aS'D:\\Rubidium\\Corpus\\Alexa\\Alexa_419_-23LUFS\\04e72649a39b98188fa07357fe0b7758.wav'
p15
aS'D:\\Rubidium\\Corpus\\Alexa\\Alexa_419_-23LUFS\\0529077f5f1d73f4952dc6f32457e4e2.wav'
p16
aS'D:\\Rubidium\\Corpus\\Alexa\\Alexa_419_-23LUFS\\056903f104e9239243c92ed6f5fe599c.wav'
p17
aS'D:\\Rubidium\\Corpus\\Alexa\\Alexa_419_-23LUFS\\05968478ca6179bea4315eb9c220a480.wav'
p18
aS'D:\\Rubidium\\Corpus\\Alexa\\Alexa_419_-23LUFS\\067065d71661758ac24b6e0917b89f54.wav'
p19
aS'D:\\Rubidium\\Corpus\\Alexa\\Alexa_419_-23LUFS\\06b1762457ce2f654488a79dea0adb0c.wav'
p20
aS'D:\\Rubidium\\Corpus\\Alexa\\Alexa_419_-23LUFS\\0719b5dca9cefdef01994c2038faaf90.wav'
p21
aS'D:\\Rubidium\\Corpus\\Alexa\\Alexa_419_-23LUFS\\07e49825df19479c8536d0ecc2e3de1b.wav'
p22
aS'D:\\Rubidium\\Corpus\\Alexa\\Alexa_419_-23LUFS\\081ee8a275a196da1d5a7d3d04abc494.wav'
p23
aS'D:\\Rubidium\\Corpus\\Alexa\\Alexa_419_-23LUFS\\083c497aa720eb919a19dd4a3922a214.wav'
p24
aS'D:\\Rubidium\\Corpus\\Alexa\\Alexa_419_-23LUFS\\08be463edd30b852f52f3b61a1eb6841.wav'
p25
aS'D:\\Rubidium\\Corpus\\Alexa\\Alexa_419_-23LUFS\\0909711241c03b8fd7156fab21bbe2d4.wav'
p26
aS'D:\\Rubidium\\Corpus\\Alexa\\Alexa_419_-23LUFS\\0949d7f537b625ec3d0006e945e760f2.wav'
p27
aS'D:\\Rubidium\\Corpus\\Alexa\\Alexa_419_-23LUFS\\09f4a29c7b005b532ed1b25a368b3c6f.wav'
p28
aS'D:\\Rubidium\\Corpus\\Alexa\\Alexa_419_-23LUFS\\0ba3f61e2a7e52b02d2b163e1306edb1.wav'
p29
aS'D:\\Rubidium\\Corpus\\Alexa\\Alexa_419_-23LUFS\\0ba6cc4500deec44bbcbd0a2b97b105a.wav'
p30
aS'D:\\Rubidium\\Corpus\\Alexa\\Alexa_419_-23LUFS\\0c260ca4d6a1f48d2d30b72ae221df73.wav'
p31
aS'D:\\Rubidium\\Corpus\\Alexa\\Alexa_419_-23LUFS\\0c77f0fabfac3fefa3f3cc4faeb57cf9.wav'
p32
aS'D:\\Rubidium\\Corpus\\Alexa\\Alexa_419_-23LUFS\\0e8cd3b555d6954214e4ef99854a4160.wav'
p33
aS'D:\\Rubidium\\Corpus\\Alexa\\Alexa_419_-23LUFS\\0e9dc1f9965569bae2e4c3356034c46f.wav'
p34
aS'D:\\Rubidium\\Corpus\\Alexa\\Alexa_419_-23LUFS\\0f6f9327a36dfc83c60d2ed4c37fb3f0.wav'
p35
aS'D:\\Rubidium\\Corpus\\Alexa\\Alexa_419_-23LUFS\\0f86a1d4b2624ca014fafd9d3f5418e9.wav'
p36
aS'D:\\Rubidium\\Corpus\\Alexa\\Alexa_419_-23LUFS\\0fd99129f28c744a8c792c3373a925ee.wav'
p37
aS'D:\\Rubidium\\Corpus\\Alexa\\Alexa_419_-23LUFS\\102e57b23f90f931487b86d6aa0121fd.wav'
p38
aS'D:\\Rubidium\\Corpus\\Alexa\\Alexa_419_-23LUFS\\108ab4b76d4596c4a9d06f1974402724.wav'
p39
aS'D:\\Rubidium\\Corpus\\Alexa\\Alexa_419_-23LUFS\\11be54666a7ca3e04cb1bdc229972f12.wav'
p40
aS'D:\\Rubidium\\Corpus\\Alexa\\Alexa_419_-23LUFS\\1354de0d8f1e139e9d0e72afe6df8331.wav'
p41
aS'D:\\Rubidium\\Corpus\\Alexa\\Alexa_419_-23LUFS\\13619648b9b1cbaccb45a6612c72ef4f.wav'
p42
aS'D:\\Rubidium\\Corpus\\Alexa\\Alexa_419_-23LUFS\\1380015a8eb4808e22d56c507e28928b.wav'
p43
aS'D:\\Rubidium\\Corpus\\Alexa\\Alexa_419_-23LUFS\\13c035440189ac33923dc7017849d036.wav'
p44
aS'D:\\Rubidium\\Corpus\\Alexa\\Alexa_419_-23LUFS\\142a5ad4567c3a026c593dade0aedf0e.wav'
p45
aS'D:\\Rubidium\\Corpus\\Alexa\\Alexa_419_-23LUFS\\153d15a62436106d9e9a89b37a100984.wav'
p46
aS'D:\\Rubidium\\Corpus\\Alexa\\Alexa_419_-23LUFS\\15b8f0c67a0f9b8842a5920419bdda9a.wav'
p47
aS'D:\\Rubidium\\Corpus\\Alexa\\Alexa_419_-23LUFS\\15d88a83dac7c597844d98193892ef4e.wav'
p48
aS'D:\\Rubidium\\Corpus\\Alexa\\Alexa_419_-23LUFS\\162686b08466fd7f6be94b9796778538.wav'
p49
aS'D:\\Rubidium\\Corpus\\Alexa\\Alexa_419_-23LUFS\\16c9d11f2ca86143f792afc136a711d0.wav'
p50
aS'D:\\Rubidium\\Corpus\\Alexa\\Alexa_419_-23LUFS\\17078d8e5562690a8138636c1c0d2e44.wav'
p51
aS'D:\\Rubidium\\Corpus\\Alexa\\Alexa_419_-23LUFS\\18046f1813da53c34575e1115adcb076.wav'
p52
aS'D:\\Rubidium\\Corpus\\Alexa\\Alexa_419_-23LUFS\\199fb83fafb12dc2ab137d373c38bc4b.wav'
p53
aS'D:\\Rubidium\\Corpus\\Alexa\\Alexa_419_-23LUFS\\1a2f0256a2e1c1b49a14342e797d3ec1.wav'
p54
aS'D:\\Rubidium\\Corpus\\Alexa\\Alexa_419_-23LUFS\\1aa697025f9cb58d8f9830e7f379d7bb.wav'
p55
aS'D:\\Rubidium\\Corpus\\Alexa\\Alexa_419_-23LUFS\\1b2d93b9ec44f356f6e222df711984ee.wav'
p56
aS'D:\\Rubidium\\Corpus\\Alexa\\Alexa_419_-23LUFS\\1c243b3921269a249ed6da56852fc45d.wav'
p57
aS'D:\\Rubidium\\Corpus\\Alexa\\Alexa_419_-23LUFS\\1cd292c59af712b7eed65a9a79a167bb.wav'
p58
aS'D:\\Rubidium\\Corpus\\Alexa\\Alexa_419_-23LUFS\\1d253acbc33aae6ee85e741d25d312e5.wav'
p59
aS'D:\\Rubidium\\Corpus\\Alexa\\Alexa_419_-23LUFS\\1da146f42e9c74d46f57acfe19560278.wav'
p60
aS'D:\\Rubidium\\Corpus\\Alexa\\Alexa_419_-23LUFS\\1df41f13cd5ee277cb2649c802caf447.wav'
p61
aS'D:\\Rubidium\\Corpus\\Alexa\\Alexa_419_-23LUFS\\1ea1533c60161e0a6130262d270b35b8.wav'
p62
aS'D:\\Rubidium\\Corpus\\Alexa\\Alexa_419_-23LUFS\\20674be638f2bdc5649cf898bae7677f.wav'
p63
aS'D:\\Rubidium\\Corpus\\Alexa\\Alexa_419_-23LUFS\\20870f8b171a48ce57957d5800bd8b34.wav'
p64
aS'D:\\Rubidium\\Corpus\\Alexa\\Alexa_419_-23LUFS\\213d5781db1671c34f4b5276acf2f27a.wav'
p65
aS'D:\\Rubidium\\Corpus\\Alexa\\Alexa_419_-23LUFS\\22b9e4c86c7ea6a49d7f1cc70566e358.wav'
p66
aS'D:\\Rubidium\\Corpus\\Alexa\\Alexa_419_-23LUFS\\231b890cc99d71966bde249fbbbeb796.wav'
p67
aS'D:\\Rubidium\\Corpus\\Alexa\\Alexa_419_-23LUFS\\2323409b026886587000e261741d2da1.wav'
p68
aS'D:\\Rubidium\\Corpus\\Alexa\\Alexa_419_-23LUFS\\2490ccd19c7c8e26a7dc78eed95b3443.wav'
p69
aS'D:\\Rubidium\\Corpus\\Alexa\\Alexa_419_-23LUFS\\24bd3bc624fd61a7935c5cd5082dd7cc.wav'
p70
aS'D:\\Rubidium\\Corpus\\Alexa\\Alexa_419_-23LUFS\\25a230b1a15e84df004db48cd2f27539.wav'
p71
aS'D:\\Rubidium\\Corpus\\Alexa\\Alexa_419_-23LUFS\\25cf8710c39806db42a44fccec8d686d.wav'
p72
aS'D:\\Rubidium\\Corpus\\Alexa\\Alexa_419_-23LUFS\\261048c4b674b74271dcde031ab01ce8.wav'
p73
aS'D:\\Rubidium\\Corpus\\Alexa\\Alexa_419_-23LUFS\\265ff559cc2fa1030c4d1dd5fe531899.wav'
p74
aS'D:\\Rubidium\\Corpus\\Alexa\\Alexa_419_-23LUFS\\26a543c9925ed7ab67b840db0693a00f.wav'
p75
aS'D:\\Rubidium\\Corpus\\Alexa\\Alexa_419_-23LUFS\\26d323f258e5263723d704c0b34782bf.wav'
p76
aS'D:\\Rubidium\\Corpus\\Alexa\\Alexa_419_-23LUFS\\27354e10605046eee7309346c317dd38.wav'
p77
aS'D:\\Rubidium\\Corpus\\Alexa\\Alexa_419_-23LUFS\\277b5312d5a4651fe0a65f4824dd5d5b.wav'
p78
aS'D:\\Rubidium\\Corpus\\Alexa\\Alexa_419_-23LUFS\\28b513bbb1130593e9270feca7959523.wav'
p79
aS'D:\\Rubidium\\Corpus\\Alexa\\Alexa_419_-23LUFS\\28c18e6d3ea845db2b9ed96d885c383f.wav'
p80
aS'D:\\Rubidium\\Corpus\\Alexa\\Alexa_419_-23LUFS\\29bce25d0d0a2f0f863f0b18fbd33b2f.wav'
p81
aS'D:\\Rubidium\\Corpus\\Alexa\\Alexa_419_-23LUFS\\2ad05bffa5d3695d7ea02e3daa6e0465.wav'
p82
aS'D:\\Rubidium\\Corpus\\Alexa\\Alexa_419_-23LUFS\\2b4f8e8f4b56fd691965f4fd3c8ad9ca.wav'
p83
aS'D:\\Rubidium\\Corpus\\Alexa\\Alexa_419_-23LUFS\\2d47407d280fce5d6570b39cb1912396.wav'
p84
aS'D:\\Rubidium\\Corpus\\Alexa\\Alexa_419_-23LUFS\\2db09c05b06a6d0770eacf176ef7f0d0.wav'
p85
aS'D:\\Rubidium\\Corpus\\Alexa\\Alexa_419_-23LUFS\\2db3b24130fd7cdcf2206479c823f96f.wav'
p86
aS'D:\\Rubidium\\Corpus\\Alexa\\Alexa_419_-23LUFS\\2e495fa8ecb59136d51545ca1890ca6d.wav'
p87
aS'D:\\Rubidium\\Corpus\\Alexa\\Alexa_419_-23LUFS\\2f4042225f0bf61035d645888598f36f.wav'
p88
aS'D:\\Rubidium\\Corpus\\Alexa\\Alexa_419_-23LUFS\\2ff086929e6758e48c11bfb0200a8062.wav'
p89
aS'D:\\Rubidium\\Corpus\\Alexa\\Alexa_419_-23LUFS\\30e3ca4e34a9b56165932e168f646f71.wav'
p90
aS'D:\\Rubidium\\Corpus\\Alexa\\Alexa_419_-23LUFS\\317a2348529ea92847ba3bed0149705d.wav'
p91
aS'D:\\Rubidium\\Corpus\\Alexa\\Alexa_419_-23LUFS\\32dd29b293cac446e16f7e413399c0bf.wav'
p92
aS'D:\\Rubidium\\Corpus\\Alexa\\Alexa_419_-23LUFS\\33a2c0593cdfa9f32f9ade38f65c809f.wav'
p93
aS'D:\\Rubidium\\Corpus\\Alexa\\Alexa_419_-23LUFS\\33d6782acbd966470a3438231926bcaf.wav'
p94
aS'D:\\Rubidium\\Corpus\\Alexa\\Alexa_419_-23LUFS\\34df4c71eca000a1bb8b9894cd0ac644.wav'
p95
aS'D:\\Rubidium\\Corpus\\Alexa\\Alexa_419_-23LUFS\\35594c3ba96197e5d26113df0aec37e9.wav'
p96
aS'D:\\Rubidium\\Corpus\\Alexa\\Alexa_419_-23LUFS\\35bd892cd86114d1244030255d55af46.wav'
p97
aS'D:\\Rubidium\\Corpus\\Alexa\\Alexa_419_-23LUFS\\36a7ba8d559fc4358115fc513c2640f1.wav'
p98
aS'D:\\Rubidium\\Corpus\\Alexa\\Alexa_419_-23LUFS\\37afee4256d1006d04e409bc1d432b9c.wav'
p99
aS'D:\\Rubidium\\Corpus\\Alexa\\Alexa_419_-23LUFS\\38c2d3f05966c57336aacf2fc9ab26c8.wav'
p100
aS'D:\\Rubidium\\Corpus\\Alexa\\Alexa_419_-23LUFS\\394af521b47565b8ac6ded5c669cda77.wav'
p101
aS'D:\\Rubidium\\Corpus\\Alexa\\Alexa_419_-23LUFS\\39f2bc653d311604a7c15bca54922385.wav'
p102
aS'D:\\Rubidium\\Corpus\\Alexa\\Alexa_419_-23LUFS\\3c6510d6d2a3234bde4c124b4ac660b1.wav'
p103
aS'D:\\Rubidium\\Corpus\\Alexa\\Alexa_419_-23LUFS\\3d9dcf625fac747716072d2a2e66d1d0.wav'
p104
aS'D:\\Rubidium\\Corpus\\Alexa\\Alexa_419_-23LUFS\\3db7e68999a4fbda59d5a2492710040b.wav'
p105
aS'D:\\Rubidium\\Corpus\\Alexa\\Alexa_419_-23LUFS\\3e0d7d6352a15a6feac7c451bc4374e2.wav'
p106
aS'D:\\Rubidium\\Corpus\\Alexa\\Alexa_419_-23LUFS\\3e3bc99422f88cf79353c6b93e5fd88f.wav'
p107
aS'D:\\Rubidium\\Corpus\\Alexa\\Alexa_419_-23LUFS\\3ead25ed7e88c76e867567832a7eb641.wav'
p108
aS'D:\\Rubidium\\Corpus\\Alexa\\Alexa_419_-23LUFS\\3ee785bedfb5d920b62c07ac74b5d7df.wav'
p109
aS'D:\\Rubidium\\Corpus\\Alexa\\Alexa_419_-23LUFS\\3fa3b20c2954dd7bdbee6cb1303f521f.wav'
p110
aS'D:\\Rubidium\\Corpus\\Alexa\\Alexa_419_-23LUFS\\4050e1e94552ce410eea5db8dd772f1d.wav'
p111
aS'D:\\Rubidium\\Corpus\\Alexa\\Alexa_419_-23LUFS\\40ce4bde02037e885e158477b35bcdff.wav'
p112
aS'D:\\Rubidium\\Corpus\\Alexa\\Alexa_419_-23LUFS\\40ea60ce0a90ae1f05aba7b2180c0c64.wav'
p113
aS'D:\\Rubidium\\Corpus\\Alexa\\Alexa_419_-23LUFS\\4155b669c24673afc74fb2acf5b6868a.wav'
p114
aS'D:\\Rubidium\\Corpus\\Alexa\\Alexa_419_-23LUFS\\41de7fc44c9b2548b7b63ad1deefe097.wav'
p115
aS'D:\\Rubidium\\Corpus\\Alexa\\Alexa_419_-23LUFS\\42e942ed6239d3528667e2bc97211043.wav'
p116
aS'D:\\Rubidium\\Corpus\\Alexa\\Alexa_419_-23LUFS\\43231591052ae69375a6b8fab05df2b8.wav'
p117
aS'D:\\Rubidium\\Corpus\\Alexa\\Alexa_419_-23LUFS\\438dfd7652e98326c0f6b791d88675b1.wav'
p118
aS'D:\\Rubidium\\Corpus\\Alexa\\Alexa_419_-23LUFS\\43d3598c3ae72ab166b76076ba921726.wav'
p119
aS'D:\\Rubidium\\Corpus\\Alexa\\Alexa_419_-23LUFS\\441e2e9871d5e7f86c7f7244b5e5a244.wav'
p120
aS'D:\\Rubidium\\Corpus\\Alexa\\Alexa_419_-23LUFS\\4447f118aee52a84c8bcb5068f466efa.wav'
p121
aS'D:\\Rubidium\\Corpus\\Alexa\\Alexa_419_-23LUFS\\446ebe5bb461fea5ccfb765ee581d428.wav'
p122
aS'D:\\Rubidium\\Corpus\\Alexa\\Alexa_419_-23LUFS\\44ffa376689805c5933cdd95d869ac4c.wav'
p123
aS'D:\\Rubidium\\Corpus\\Alexa\\Alexa_419_-23LUFS\\45e2a9258bc0c8beabc547560ccb1d7e.wav'
p124
aS'D:\\Rubidium\\Corpus\\Alexa\\Alexa_419_-23LUFS\\4716b82ee855daa8c91c31841c9c450f.wav'
p125
aS'D:\\Rubidium\\Corpus\\Alexa\\Alexa_419_-23LUFS\\47423d0a4232f6a3db03498f7870a952.wav'
p126
aS'D:\\Rubidium\\Corpus\\Alexa\\Alexa_419_-23LUFS\\475828b7278492d8dd0afa0d868cf2f6.wav'
p127
aS'D:\\Rubidium\\Corpus\\Alexa\\Alexa_419_-23LUFS\\48292969889646f76f88616e372b99a8.wav'
p128
aS'D:\\Rubidium\\Corpus\\Alexa\\Alexa_419_-23LUFS\\487661c4ce2368d7b290d406de7a58c5.wav'
p129
aS'D:\\Rubidium\\Corpus\\Alexa\\Alexa_419_-23LUFS\\48873379b7df3ad8c8023cdbaa53e049.wav'
p130
aS'D:\\Rubidium\\Corpus\\Alexa\\Alexa_419_-23LUFS\\48a17899071d3d6d05e725e199bfe2ee.wav'
p131
aS'D:\\Rubidium\\Corpus\\Alexa\\Alexa_419_-23LUFS\\4a513c2d39053e0337ceeb5b617ae198.wav'
p132
aS'D:\\Rubidium\\Corpus\\Alexa\\Alexa_419_-23LUFS\\4a686f1e5f70a64bb44a8a2b3c8fd66d.wav'
p133
aS'D:\\Rubidium\\Corpus\\Alexa\\Alexa_419_-23LUFS\\4c946c5af8a96b8de67992df31d94d2f.wav'
p134
aS'D:\\Rubidium\\Corpus\\Alexa\\Alexa_419_-23LUFS\\4df1e8c98b303df2569df373ea122b73.wav'
p135
aS'D:\\Rubidium\\Corpus\\Alexa\\Alexa_419_-23LUFS\\4ead5ab738143926d51a2bab1a1c9dab.wav'
p136
aS'D:\\Rubidium\\Corpus\\Alexa\\Alexa_419_-23LUFS\\5042f07a487b1a1bc84d410869666918.wav'
p137
aS'D:\\Rubidium\\Corpus\\Alexa\\Alexa_419_-23LUFS\\505bb081c78df0913eeb7d0526ccf8db.wav'
p138
aS'D:\\Rubidium\\Corpus\\Alexa\\Alexa_419_-23LUFS\\508515c0b88d2d5013a38daf55a62cd2.wav'
p139
aS'D:\\Rubidium\\Corpus\\Alexa\\Alexa_419_-23LUFS\\50e5ca91ba2c25e3ee551eb4b15ff73d.wav'
p140
aS'D:\\Rubidium\\Corpus\\Alexa\\Alexa_419_-23LUFS\\511604053e66cd0e3fe6c1ac90a1f0ee.wav'
p141
aS'D:\\Rubidium\\Corpus\\Alexa\\Alexa_419_-23LUFS\\514ba240197e86c625add7d1beaa5b16.wav'
p142
aS'D:\\Rubidium\\Corpus\\Alexa\\Alexa_419_-23LUFS\\52fdaae1ba9b46d55498c6e2801ec657.wav'
p143
aS'D:\\Rubidium\\Corpus\\Alexa\\Alexa_419_-23LUFS\\53cab78d7e5f1240d91d71fff282037b.wav'
p144
aS'D:\\Rubidium\\Corpus\\Alexa\\Alexa_419_-23LUFS\\54eb77da9f9983d1a23e5c20698e0292.wav'
p145
aS'D:\\Rubidium\\Corpus\\Alexa\\Alexa_419_-23LUFS\\5548ece54563d0ae4919500015bbc119.wav'
p146
aS'D:\\Rubidium\\Corpus\\Alexa\\Alexa_419_-23LUFS\\554fa66c7ab758fdc682814cd9ffcac4.wav'
p147
aS'D:\\Rubidium\\Corpus\\Alexa\\Alexa_419_-23LUFS\\56163be816a2760c70f4c443bbef592f.wav'
p148
aS'D:\\Rubidium\\Corpus\\Alexa\\Alexa_419_-23LUFS\\563cc33df526db4b7d2f540927b43aa0.wav'
p149
aS'D:\\Rubidium\\Corpus\\Alexa\\Alexa_419_-23LUFS\\5659713bf0b3879e84d11dbff261005a.wav'
p150
aS'D:\\Rubidium\\Corpus\\Alexa\\Alexa_419_-23LUFS\\569a7fa642851f24b922b7e324f1af77.wav'
p151
aS'D:\\Rubidium\\Corpus\\Alexa\\Alexa_419_-23LUFS\\56ff089fc4242f5cbda53fb501f62843.wav'
p152
aS'D:\\Rubidium\\Corpus\\Alexa\\Alexa_419_-23LUFS\\5741ed69492d8a2abec53623123dc021.wav'
p153
aS'D:\\Rubidium\\Corpus\\Alexa\\Alexa_419_-23LUFS\\592b80f62df6e531177a9b7f2237ddce.wav'
p154
aS'D:\\Rubidium\\Corpus\\Alexa\\Alexa_419_-23LUFS\\5935de872497815e394b77c676672887.wav'
p155
aS'D:\\Rubidium\\Corpus\\Alexa\\Alexa_419_-23LUFS\\59f5cfaf7aca1a25d0ad5e4601cbf90c.wav'
p156
aS'D:\\Rubidium\\Corpus\\Alexa\\Alexa_419_-23LUFS\\5a6a231fa934d5305e690460aa2808a8.wav'
p157
aS'D:\\Rubidium\\Corpus\\Alexa\\Alexa_419_-23LUFS\\5cfd78ef0f96a49c14c693a3c3634fd5.wav'
p158
aS'D:\\Rubidium\\Corpus\\Alexa\\Alexa_419_-23LUFS\\5d179c44499989ea3ce05d873637a3c5.wav'
p159
aS'D:\\Rubidium\\Corpus\\Alexa\\Alexa_419_-23LUFS\\5eaab325dcc94b7c5063ef8712eb6464.wav'
p160
aS'D:\\Rubidium\\Corpus\\Alexa\\Alexa_419_-23LUFS\\5f7cb0ee63188a401cb1fd9e8dab9cff.wav'
p161
aS'D:\\Rubidium\\Corpus\\Alexa\\Alexa_419_-23LUFS\\604dff01fab0c214268b01140c1f17d3.wav'
p162
aS'D:\\Rubidium\\Corpus\\Alexa\\Alexa_419_-23LUFS\\6114598ced97f36c8d9cc4ba3db44505.wav'
p163
aS'D:\\Rubidium\\Corpus\\Alexa\\Alexa_419_-23LUFS\\61414e6c965b2d96bf2a156e2112c472.wav'
p164
aS'D:\\Rubidium\\Corpus\\Alexa\\Alexa_419_-23LUFS\\61c4df8097b1e6a63ff105f45c4813fd.wav'
p165
aS'D:\\Rubidium\\Corpus\\Alexa\\Alexa_419_-23LUFS\\6294292f6dc2211cd92198fa5b725f5a.wav'
p166
aS'D:\\Rubidium\\Corpus\\Alexa\\Alexa_419_-23LUFS\\62e265a9d720c8bb24ca07cbd5022271.wav'
p167
aS'D:\\Rubidium\\Corpus\\Alexa\\Alexa_419_-23LUFS\\636ef954fa1dc407822d666ee06e192d.wav'
p168
aS'D:\\Rubidium\\Corpus\\Alexa\\Alexa_419_-23LUFS\\63a042568fb87a5bcb460f5a96709f4c.wav'
p169
aS'D:\\Rubidium\\Corpus\\Alexa\\Alexa_419_-23LUFS\\64473c4b1c509acb206d944ea5cf32fa.wav'
p170
aS'D:\\Rubidium\\Corpus\\Alexa\\Alexa_419_-23LUFS\\644abb584d5e8b14cb75053940277208.wav'
p171
aS'D:\\Rubidium\\Corpus\\Alexa\\Alexa_419_-23LUFS\\645e97d297076d3bc8229531ffcf7f9f.wav'
p172
aS'D:\\Rubidium\\Corpus\\Alexa\\Alexa_419_-23LUFS\\6497255f20bf0f11926555a605499d00.wav'
p173
aS'D:\\Rubidium\\Corpus\\Alexa\\Alexa_419_-23LUFS\\656f0e8959915be1335c843f6901b3e2.wav'
p174
aS'D:\\Rubidium\\Corpus\\Alexa\\Alexa_419_-23LUFS\\66d87b5d40a3fdd2da00e5448a3d3fef.wav'
p175
aS'D:\\Rubidium\\Corpus\\Alexa\\Alexa_419_-23LUFS\\679b5ceab2e8f2bd63cc611f211492d1.wav'
p176
aS'D:\\Rubidium\\Corpus\\Alexa\\Alexa_419_-23LUFS\\67b517ced2af129fe8467e9ed6220ab8.wav'
p177
aS'D:\\Rubidium\\Corpus\\Alexa\\Alexa_419_-23LUFS\\685ff18581a23e5f8879a2ddfc4071de.wav'
p178
aS'D:\\Rubidium\\Corpus\\Alexa\\Alexa_419_-23LUFS\\687d3b9bd1b1b0ea384f082bae92d1cf.wav'
p179
aS'D:\\Rubidium\\Corpus\\Alexa\\Alexa_419_-23LUFS\\698d323e78ba710c02338c9061d29565.wav'
p180
aS'D:\\Rubidium\\Corpus\\Alexa\\Alexa_419_-23LUFS\\6999ee01cf30657c057adc79b016f722.wav'
p181
aS'D:\\Rubidium\\Corpus\\Alexa\\Alexa_419_-23LUFS\\69d49bc8aaa6bb84bd36e882d870bfc4.wav'
p182
aS'D:\\Rubidium\\Corpus\\Alexa\\Alexa_419_-23LUFS\\6b1372fc9a6fe0f968c9496b2ae38c1d.wav'
p183
aS'D:\\Rubidium\\Corpus\\Alexa\\Alexa_419_-23LUFS\\6b1da2270cfff5c7997f3fac0e87e5b0.wav'
p184
aS'D:\\Rubidium\\Corpus\\Alexa\\Alexa_419_-23LUFS\\6b827990621759b8df5313cfb2c557ee.wav'
p185
aS'D:\\Rubidium\\Corpus\\Alexa\\Alexa_419_-23LUFS\\6bd8af8ee60636a99216ffd5e82abc31.wav'
p186
aS'D:\\Rubidium\\Corpus\\Alexa\\Alexa_419_-23LUFS\\6c0ab32fb28e6d919ed2e1abe1420874.wav'
p187
aS'D:\\Rubidium\\Corpus\\Alexa\\Alexa_419_-23LUFS\\6d4abd4000dfae8603ef6e77b0ae3c14.wav'
p188
aS'D:\\Rubidium\\Corpus\\Alexa\\Alexa_419_-23LUFS\\6d4e4d18398b3e0630ec152b87768776.wav'
p189
aS'D:\\Rubidium\\Corpus\\Alexa\\Alexa_419_-23LUFS\\6d78b060e964dd6b2d04b86f636ae791.wav'
p190
aS'D:\\Rubidium\\Corpus\\Alexa\\Alexa_419_-23LUFS\\6e63e6cfa4efcccc18504944f817e2a4.wav'
p191
aS'D:\\Rubidium\\Corpus\\Alexa\\Alexa_419_-23LUFS\\6e979d4242363ba038231cf1a7c0716f.wav'
p192
aS'D:\\Rubidium\\Corpus\\Alexa\\Alexa_419_-23LUFS\\6f960af66f44ec0936f35583229a069a.wav'
p193
aS'D:\\Rubidium\\Corpus\\Alexa\\Alexa_419_-23LUFS\\6fcb861268f91c16bff734140b464df6.wav'
p194
aS'D:\\Rubidium\\Corpus\\Alexa\\Alexa_419_-23LUFS\\7058c8d561d5d6c4d1e79d4d078d2750.wav'
p195
aS'D:\\Rubidium\\Corpus\\Alexa\\Alexa_419_-23LUFS\\70a5752ee237569ef25d3d3499529166.wav'
p196
aS'D:\\Rubidium\\Corpus\\Alexa\\Alexa_419_-23LUFS\\70ab14e19d2be4f586138cdd6b6210c5.wav'
p197
aS'D:\\Rubidium\\Corpus\\Alexa\\Alexa_419_-23LUFS\\717c8ed7059ac60da743b84f167c9fec.wav'
p198
aS'D:\\Rubidium\\Corpus\\Alexa\\Alexa_419_-23LUFS\\72135106d7f3867c02ae5ea45ec1ca2d.wav'
p199
aS'D:\\Rubidium\\Corpus\\Alexa\\Alexa_419_-23LUFS\\7264ad98a8a80e6da95209add5d4cd6e.wav'
p200
aS'D:\\Rubidium\\Corpus\\Alexa\\Alexa_419_-23LUFS\\728b33b2fbae231618ff4733232bcdbe.wav'
p201
aS'D:\\Rubidium\\Corpus\\Alexa\\Alexa_419_-23LUFS\\732393ef4244b58ea82aa7cd106a4fa9.wav'
p202
aS'D:\\Rubidium\\Corpus\\Alexa\\Alexa_419_-23LUFS\\74023e17791bf60f65375894afa88cf2.wav'
p203
aS'D:\\Rubidium\\Corpus\\Alexa\\Alexa_419_-23LUFS\\74b422e16c2a16544327a325a9fc6d8e.wav'
p204
aS'D:\\Rubidium\\Corpus\\Alexa\\Alexa_419_-23LUFS\\75170c6d56cfea798c7b198103290201.wav'
p205
aS'D:\\Rubidium\\Corpus\\Alexa\\Alexa_419_-23LUFS\\7570275dd70061e36fd1d83f63bc4b45.wav'
p206
aS'D:\\Rubidium\\Corpus\\Alexa\\Alexa_419_-23LUFS\\75bdaf9c1a047ccd3eca1c8c694e16d9.wav'
p207
aS'D:\\Rubidium\\Corpus\\Alexa\\Alexa_419_-23LUFS\\774dc43268eb99ecf6baff9d409f1704.wav'
p208
aS'D:\\Rubidium\\Corpus\\Alexa\\Alexa_419_-23LUFS\\7795b0803aa96b335928d87cf2b8f7c7.wav'
p209
aS'D:\\Rubidium\\Corpus\\Alexa\\Alexa_419_-23LUFS\\7828a53c56e61af674bbe47022d6d93c.wav'
p210
aS'D:\\Rubidium\\Corpus\\Alexa\\Alexa_419_-23LUFS\\789638a63ccef8a5cce7170cdd11c7fa.wav'
p211
aS'D:\\Rubidium\\Corpus\\Alexa\\Alexa_419_-23LUFS\\78adeee02de467765b4b6fd3306546c7.wav'
p212
aS'D:\\Rubidium\\Corpus\\Alexa\\Alexa_419_-23LUFS\\78ddd47f1936cc31d900b10031fa76d0.wav'
p213
aS'D:\\Rubidium\\Corpus\\Alexa\\Alexa_419_-23LUFS\\79cfe04c93fa55e3ed74f4437de7976a.wav'
p214
aS'D:\\Rubidium\\Corpus\\Alexa\\Alexa_419_-23LUFS\\79d2f85f03fe53e5d59043f9c43fdd45.wav'
p215
aS'D:\\Rubidium\\Corpus\\Alexa\\Alexa_419_-23LUFS\\7a523612a1ffe353d3032970bec03138.wav'
p216
aS'D:\\Rubidium\\Corpus\\Alexa\\Alexa_419_-23LUFS\\7ba6d68a9ea784fb403026c9d5565c65.wav'
p217
aS'D:\\Rubidium\\Corpus\\Alexa\\Alexa_419_-23LUFS\\7bd434e10b295cde65c87f6ca0132d91.wav'
p218
aS'D:\\Rubidium\\Corpus\\Alexa\\Alexa_419_-23LUFS\\7c0c79965f5adf773b65b67a7adc9307.wav'
p219
aS'D:\\Rubidium\\Corpus\\Alexa\\Alexa_419_-23LUFS\\7c46515c5f0cfece5ec5f1c49d1ef75a.wav'
p220
aS'D:\\Rubidium\\Corpus\\Alexa\\Alexa_419_-23LUFS\\7c9440fb3850146fd75b3dc093389a9d.wav'
p221
aS'D:\\Rubidium\\Corpus\\Alexa\\Alexa_419_-23LUFS\\7ca1dfa164591c7bd0cca686308ad272.wav'
p222
aS'D:\\Rubidium\\Corpus\\Alexa\\Alexa_419_-23LUFS\\7d0eff26a188dbb32bef1a214f725cd1.wav'
p223
aS'D:\\Rubidium\\Corpus\\Alexa\\Alexa_419_-23LUFS\\7d1db8ff2c68469ad69d04cc01ae76ae.wav'
p224
aS'D:\\Rubidium\\Corpus\\Alexa\\Alexa_419_-23LUFS\\7e031b11a77d4c61c551a0433ad11aab.wav'
p225
aS'D:\\Rubidium\\Corpus\\Alexa\\Alexa_419_-23LUFS\\7ec3e25fc05dbecc1656c8609a1fb46f.wav'
p226
aS'D:\\Rubidium\\Corpus\\Alexa\\Alexa_419_-23LUFS\\7f6ba575d4d82fbccbf4e5a8f5a97cbf.wav'
p227
aS'D:\\Rubidium\\Corpus\\Alexa\\Alexa_419_-23LUFS\\81497f537c4790dd221c3c1d9c21074f.wav'
p228
aS'D:\\Rubidium\\Corpus\\Alexa\\Alexa_419_-23LUFS\\83094585cbe2aaef1da510115049bbbd.wav'
p229
aS'D:\\Rubidium\\Corpus\\Alexa\\Alexa_419_-23LUFS\\8327b7180af53d47f089c3b9bcb203f5.wav'
p230
aS'D:\\Rubidium\\Corpus\\Alexa\\Alexa_419_-23LUFS\\852e53cfeb0c03c05ac4c03f34c868d7.wav'
p231
aS'D:\\Rubidium\\Corpus\\Alexa\\Alexa_419_-23LUFS\\8687e1681bac6d7e8efcb5d8939bc2e0.wav'
p232
aS'D:\\Rubidium\\Corpus\\Alexa\\Alexa_419_-23LUFS\\86a6840c5dce5e1733126017a2f37f93.wav'
p233
aS'D:\\Rubidium\\Corpus\\Alexa\\Alexa_419_-23LUFS\\879fb2d3891c5bec4cfd664b1c917ad5.wav'
p234
aS'D:\\Rubidium\\Corpus\\Alexa\\Alexa_419_-23LUFS\\87e47e0b3b60893c716d7171cdb20139.wav'
p235
aS'D:\\Rubidium\\Corpus\\Alexa\\Alexa_419_-23LUFS\\87f873e2010b996682de98116b3c599b.wav'
p236
aS'D:\\Rubidium\\Corpus\\Alexa\\Alexa_419_-23LUFS\\889c0b4c25f2857b8696d8e3436239b6.wav'
p237
aS'D:\\Rubidium\\Corpus\\Alexa\\Alexa_419_-23LUFS\\88a0463e494383f76859e6ab4fa51b7d.wav'
p238
aS'D:\\Rubidium\\Corpus\\Alexa\\Alexa_419_-23LUFS\\88fbd368eeb8e6157513b5ab9342e066.wav'
p239
aS'D:\\Rubidium\\Corpus\\Alexa\\Alexa_419_-23LUFS\\891ccbd4ef5af632dfffb07634a12283.wav'
p240
aS'D:\\Rubidium\\Corpus\\Alexa\\Alexa_419_-23LUFS\\8983262b58b14d07422b96ee47ee8e2d.wav'
p241
aS'D:\\Rubidium\\Corpus\\Alexa\\Alexa_419_-23LUFS\\8a02719a0f02254273607108af422ebd.wav'
p242
aS'D:\\Rubidium\\Corpus\\Alexa\\Alexa_419_-23LUFS\\8b3691c013c89cf5d898d3258a5a1867.wav'
p243
aS'D:\\Rubidium\\Corpus\\Alexa\\Alexa_419_-23LUFS\\8c6cb80eaad7e2bb75a1ec0c3ec86165.wav'
p244
aS'D:\\Rubidium\\Corpus\\Alexa\\Alexa_419_-23LUFS\\8dbecc781b7255aed56a19d94d307d1a.wav'
p245
aS'D:\\Rubidium\\Corpus\\Alexa\\Alexa_419_-23LUFS\\8dddee1151c240aba4dc17020f75240a.wav'
p246
aS'D:\\Rubidium\\Corpus\\Alexa\\Alexa_419_-23LUFS\\906a5f2e257a6c1b1e05df1357f3c181.wav'
p247
aS'D:\\Rubidium\\Corpus\\Alexa\\Alexa_419_-23LUFS\\937edb4d55495926bbd08194ed67d35d.wav'
p248
aS'D:\\Rubidium\\Corpus\\Alexa\\Alexa_419_-23LUFS\\93f64ce069bdf7fe9c3eaea54662b70c.wav'
p249
aS'D:\\Rubidium\\Corpus\\Alexa\\Alexa_419_-23LUFS\\944f4b2ae31f58b1960bd2b8cb91b264.wav'
p250
aS'D:\\Rubidium\\Corpus\\Alexa\\Alexa_419_-23LUFS\\9474be4ead22e9158b595b85115b765a.wav'
p251
aS'D:\\Rubidium\\Corpus\\Alexa\\Alexa_419_-23LUFS\\95083afc385345035672a9c9ce4047b3.wav'
p252
aS'D:\\Rubidium\\Corpus\\Alexa\\Alexa_419_-23LUFS\\9564e32bff1aff660cf47e10da2cfb72.wav'
p253
aS'D:\\Rubidium\\Corpus\\Alexa\\Alexa_419_-23LUFS\\965d5493cd5fbdca48dfaa7740ed1056.wav'
p254
aS'D:\\Rubidium\\Corpus\\Alexa\\Alexa_419_-23LUFS\\97631a28c43ebe851d090bc17eba3da3.wav'
p255
aS'D:\\Rubidium\\Corpus\\Alexa\\Alexa_419_-23LUFS\\987a02d8160ae8b402206c198ba3df79.wav'
p256
aS'D:\\Rubidium\\Corpus\\Alexa\\Alexa_419_-23LUFS\\98e8ad0ef2a2eea2bc874e0c828fb2b3.wav'
p257
aS'D:\\Rubidium\\Corpus\\Alexa\\Alexa_419_-23LUFS\\9941a7090431fec0c53502202fd8078f.wav'
p258
aS'D:\\Rubidium\\Corpus\\Alexa\\Alexa_419_-23LUFS\\9a2a10804c340db181b39d608d4775a5.wav'
p259
aS'D:\\Rubidium\\Corpus\\Alexa\\Alexa_419_-23LUFS\\9a70ae2b1b301dcae5b8307a4d2a4969.wav'
p260
aS'D:\\Rubidium\\Corpus\\Alexa\\Alexa_419_-23LUFS\\9b21583998a0fdb07cdd10814d9e06b5.wav'
p261
aS'D:\\Rubidium\\Corpus\\Alexa\\Alexa_419_-23LUFS\\9bddb85a98b8d28169d0434a708ad7fb.wav'
p262
aS'D:\\Rubidium\\Corpus\\Alexa\\Alexa_419_-23LUFS\\9c05a6737fe817258b766b80bcdf299f.wav'
p263
aS'D:\\Rubidium\\Corpus\\Alexa\\Alexa_419_-23LUFS\\9c0a74d02a2a4d8884cb78d1bb46049b.wav'
p264
aS'D:\\Rubidium\\Corpus\\Alexa\\Alexa_419_-23LUFS\\9ddd78decf1d5209451aa2dc1aefd443.wav'
p265
aS'D:\\Rubidium\\Corpus\\Alexa\\Alexa_419_-23LUFS\\9e7fa4385e1f7d549e25a89b528aa5ad.wav'
p266
aS'D:\\Rubidium\\Corpus\\Alexa\\Alexa_419_-23LUFS\\9f4ad8de2c761a011c3a5814b2573c82.wav'
p267
aS'D:\\Rubidium\\Corpus\\Alexa\\Alexa_419_-23LUFS\\9fab8cf91d4cc38ec396508b22af144a.wav'
p268
aS'D:\\Rubidium\\Corpus\\Alexa\\Alexa_419_-23LUFS\\a14677463d5f7f3e9081ee6d1e2bf295.wav'
p269
aS'D:\\Rubidium\\Corpus\\Alexa\\Alexa_419_-23LUFS\\a156e8642536506f52262c912119efda.wav'
p270
aS'D:\\Rubidium\\Corpus\\Alexa\\Alexa_419_-23LUFS\\a2a0494bfce9e6a15efa2dccf29cff49.wav'
p271
aS'D:\\Rubidium\\Corpus\\Alexa\\Alexa_419_-23LUFS\\a338c967f6127fadecd9dc8dd7d30fd1.wav'
p272
aS'D:\\Rubidium\\Corpus\\Alexa\\Alexa_419_-23LUFS\\a377eba8822a1ac0e5cf55dd8070a34c.wav'
p273
aS'D:\\Rubidium\\Corpus\\Alexa\\Alexa_419_-23LUFS\\a469227cd85460ba2f272015d0b6e0dd.wav'
p274
aS'D:\\Rubidium\\Corpus\\Alexa\\Alexa_419_-23LUFS\\a50a20a8361922ddcd7592ecc0acc51a.wav'
p275
aS'D:\\Rubidium\\Corpus\\Alexa\\Alexa_419_-23LUFS\\a5e461a50e93536b04f161bb6ed33d2c.wav'
p276
aS'D:\\Rubidium\\Corpus\\Alexa\\Alexa_419_-23LUFS\\a68e0e3268467804fb257d8fa5e6940d.wav'
p277
aS'D:\\Rubidium\\Corpus\\Alexa\\Alexa_419_-23LUFS\\a734904131d11013e0056a629e361123.wav'
p278
aS'D:\\Rubidium\\Corpus\\Alexa\\Alexa_419_-23LUFS\\a765d6efb8fb9e473515b7b989a461d0.wav'
p279
aS'D:\\Rubidium\\Corpus\\Alexa\\Alexa_419_-23LUFS\\a783b6c9db99bfc7e524e44daa55eccc.wav'
p280
aS'D:\\Rubidium\\Corpus\\Alexa\\Alexa_419_-23LUFS\\a8bd1cbb5407cf807b98fd2377c6c9f3.wav'
p281
aS'D:\\Rubidium\\Corpus\\Alexa\\Alexa_419_-23LUFS\\a937418dd1247cd8a357dc62ab8d6450.wav'
p282
aS'D:\\Rubidium\\Corpus\\Alexa\\Alexa_419_-23LUFS\\a9700a95a1ec6c95a616708f74fb2288.wav'
p283
aS'D:\\Rubidium\\Corpus\\Alexa\\Alexa_419_-23LUFS\\aa2f03d2f02af2dcb9d76ad327e7ca15.wav'
p284
aS'D:\\Rubidium\\Corpus\\Alexa\\Alexa_419_-23LUFS\\ab4c719acd2942004b352b38bcad6b20.wav'
p285
aS'D:\\Rubidium\\Corpus\\Alexa\\Alexa_419_-23LUFS\\abd585a65a6c46f99fb3aced67496deb.wav'
p286
aS'D:\\Rubidium\\Corpus\\Alexa\\Alexa_419_-23LUFS\\ace6cda5f2d281ef401dbbf09480c086.wav'
p287
aS'D:\\Rubidium\\Corpus\\Alexa\\Alexa_419_-23LUFS\\ad44d06eb76da0801e0537de22bc2a59.wav'
p288
aS'D:\\Rubidium\\Corpus\\Alexa\\Alexa_419_-23LUFS\\adcf00bf129d6b60fd25a5015b2b8093.wav'
p289
aS'D:\\Rubidium\\Corpus\\Alexa\\Alexa_419_-23LUFS\\ade4aa911c6e51ef3ba42df1e993a50c.wav'
p290
aS'D:\\Rubidium\\Corpus\\Alexa\\Alexa_419_-23LUFS\\ae633cbbfb62c02d0c54020ebd020480.wav'
p291
aS'D:\\Rubidium\\Corpus\\Alexa\\Alexa_419_-23LUFS\\aee304e6b2831e80286a31c92cc84bd3.wav'
p292
aS'D:\\Rubidium\\Corpus\\Alexa\\Alexa_419_-23LUFS\\aef2aa003ad0ec97baff20bd3798ca8e.wav'
p293
aS'D:\\Rubidium\\Corpus\\Alexa\\Alexa_419_-23LUFS\\affdd6d1650b0dd4cec53770501b8061.wav'
p294
aS'D:\\Rubidium\\Corpus\\Alexa\\Alexa_419_-23LUFS\\b0925dc6c4657872ed22ba60637ffd63.wav'
p295
aS'D:\\Rubidium\\Corpus\\Alexa\\Alexa_419_-23LUFS\\b0ec0c53c8704b96b4a4c8a057d1992f.wav'
p296
aS'D:\\Rubidium\\Corpus\\Alexa\\Alexa_419_-23LUFS\\b0ed86d44bb109e871054ce184a7fe76.wav'
p297
aS'D:\\Rubidium\\Corpus\\Alexa\\Alexa_419_-23LUFS\\b0f21677076ca24d307d43ca3e1a153f.wav'
p298
aS'D:\\Rubidium\\Corpus\\Alexa\\Alexa_419_-23LUFS\\b116a3b00a2c54c97e1910c51ec8664d.wav'
p299
aS'D:\\Rubidium\\Corpus\\Alexa\\Alexa_419_-23LUFS\\b1344b134d207177a497f60ec23a8f0f.wav'
p300
aS'D:\\Rubidium\\Corpus\\Alexa\\Alexa_419_-23LUFS\\b2ab619205913043fc01d8f5b25b3342.wav'
p301
aS'D:\\Rubidium\\Corpus\\Alexa\\Alexa_419_-23LUFS\\b2be87185e8f987ebcef6e742c436c8c.wav'
p302
aS'D:\\Rubidium\\Corpus\\Alexa\\Alexa_419_-23LUFS\\b348c3356f425e7b52c7ed942e1f8af2.wav'
p303
aS'D:\\Rubidium\\Corpus\\Alexa\\Alexa_419_-23LUFS\\b3b51ea2fdb9ecef71392d35d54eae55.wav'
p304
aS'D:\\Rubidium\\Corpus\\Alexa\\Alexa_419_-23LUFS\\b420228b039ff4a1ed3c5000c03e13c8.wav'
p305
aS'D:\\Rubidium\\Corpus\\Alexa\\Alexa_419_-23LUFS\\b478313af3bb71e8367f1cb11b31cdb6.wav'
p306
aS'D:\\Rubidium\\Corpus\\Alexa\\Alexa_419_-23LUFS\\b4bc790b05a11f7239bdb70cc712a58a.wav'
p307
aS'D:\\Rubidium\\Corpus\\Alexa\\Alexa_419_-23LUFS\\b4d3f9a20b607dc02a47bcd10cb667a7.wav'
p308
aS'D:\\Rubidium\\Corpus\\Alexa\\Alexa_419_-23LUFS\\b55f3702c499e50604d23d005e4ce131.wav'
p309
aS'D:\\Rubidium\\Corpus\\Alexa\\Alexa_419_-23LUFS\\b5ce456edc5c5f0638db97b2fb495232.wav'
p310
aS'D:\\Rubidium\\Corpus\\Alexa\\Alexa_419_-23LUFS\\b89ad1a6c9417f469607cdb2bdffdb49.wav'
p311
aS'D:\\Rubidium\\Corpus\\Alexa\\Alexa_419_-23LUFS\\b8c802cbb3161fce9eb4bccf93dd50ad.wav'
p312
aS'D:\\Rubidium\\Corpus\\Alexa\\Alexa_419_-23LUFS\\b8ea3bd742af58a558f7c2dcda14edab.wav'
p313
aS'D:\\Rubidium\\Corpus\\Alexa\\Alexa_419_-23LUFS\\ba0645d6b0c4c136d903264e82160d69.wav'
p314
aS'D:\\Rubidium\\Corpus\\Alexa\\Alexa_419_-23LUFS\\ba3fc9da63073f43192fd8358002ff3f.wav'
p315
aS'D:\\Rubidium\\Corpus\\Alexa\\Alexa_419_-23LUFS\\bb12dd03dbe5e61f80ed7089966b9a1f.wav'
p316
aS'D:\\Rubidium\\Corpus\\Alexa\\Alexa_419_-23LUFS\\bb777961dd1a8f94249596fd13ba846c.wav'
p317
aS'D:\\Rubidium\\Corpus\\Alexa\\Alexa_419_-23LUFS\\bccd865470a8adfa811ccf5a34a8373d.wav'
p318
aS'D:\\Rubidium\\Corpus\\Alexa\\Alexa_419_-23LUFS\\bd72f8dc9adb6042f640768d4160f60f.wav'
p319
aS'D:\\Rubidium\\Corpus\\Alexa\\Alexa_419_-23LUFS\\bdef61a3f38df1436cd741b1d715714b.wav'
p320
aS'D:\\Rubidium\\Corpus\\Alexa\\Alexa_419_-23LUFS\\beffbd8af280828c3133f98f10469f21.wav'
p321
aS'D:\\Rubidium\\Corpus\\Alexa\\Alexa_419_-23LUFS\\bfceedde95c222c4a770c2561e30393d.wav'
p322
aS'D:\\Rubidium\\Corpus\\Alexa\\Alexa_419_-23LUFS\\c0a8829ce137b690ebfb4da37e07b1df.wav'
p323
aS'D:\\Rubidium\\Corpus\\Alexa\\Alexa_419_-23LUFS\\c0b689a344195ad21c72b5ba663be08a.wav'
p324
aS'D:\\Rubidium\\Corpus\\Alexa\\Alexa_419_-23LUFS\\c0efc776d259ad57edf491f67753596c.wav'
p325
aS'D:\\Rubidium\\Corpus\\Alexa\\Alexa_419_-23LUFS\\c15fb9529ab01314169dba231ccfcf09.wav'
p326
aS'D:\\Rubidium\\Corpus\\Alexa\\Alexa_419_-23LUFS\\c177aa3bf28c1e1fcd91b4ffb3535703.wav'
p327
aS'D:\\Rubidium\\Corpus\\Alexa\\Alexa_419_-23LUFS\\c21d4b59e3e6c795a1bcafa6f16aea8e.wav'
p328
aS'D:\\Rubidium\\Corpus\\Alexa\\Alexa_419_-23LUFS\\c238b37e2e0ce14a0021ee578e6ad87d.wav'
p329
aS'D:\\Rubidium\\Corpus\\Alexa\\Alexa_419_-23LUFS\\c26c841011e8468b4b52cda8b99a91e3.wav'
p330
aS'D:\\Rubidium\\Corpus\\Alexa\\Alexa_419_-23LUFS\\c2a8248feac6459891aecb0aef192c73.wav'
p331
aS'D:\\Rubidium\\Corpus\\Alexa\\Alexa_419_-23LUFS\\c2b3ea83ca9408e71a018f857fb87eb2.wav'
p332
aS'D:\\Rubidium\\Corpus\\Alexa\\Alexa_419_-23LUFS\\c369805e656545c5fc3541c3ac6611ae.wav'
p333
aS'D:\\Rubidium\\Corpus\\Alexa\\Alexa_419_-23LUFS\\c489aa9f16395d05e92894ffbd27cf7d.wav'
p334
aS'D:\\Rubidium\\Corpus\\Alexa\\Alexa_419_-23LUFS\\c48e359dc448506b63731ee79dda0d11.wav'
p335
aS'D:\\Rubidium\\Corpus\\Alexa\\Alexa_419_-23LUFS\\c4d933545f13ec172968dfecbaffd7b4.wav'
p336
aS'D:\\Rubidium\\Corpus\\Alexa\\Alexa_419_-23LUFS\\c67270f9bbb0d1aa576c7888b1f45596.wav'
p337
aS'D:\\Rubidium\\Corpus\\Alexa\\Alexa_419_-23LUFS\\c891e3536524d47f8c3f22d2a229fac1.wav'
p338
aS'D:\\Rubidium\\Corpus\\Alexa\\Alexa_419_-23LUFS\\c892a7172705a665d65f2e60ac47632e.wav'
p339
aS'D:\\Rubidium\\Corpus\\Alexa\\Alexa_419_-23LUFS\\c8bee3b1eba94ef33278151f550dd414.wav'
p340
aS'D:\\Rubidium\\Corpus\\Alexa\\Alexa_419_-23LUFS\\c8cf244055f7bc24f4b4b0ff527d1fd7.wav'
p341
aS'D:\\Rubidium\\Corpus\\Alexa\\Alexa_419_-23LUFS\\cb9734622eb0be486785f2a36f81bef5.wav'
p342
aS'D:\\Rubidium\\Corpus\\Alexa\\Alexa_419_-23LUFS\\cbab417f33829a65fe9ae44b1ec07a3b.wav'
p343
aS'D:\\Rubidium\\Corpus\\Alexa\\Alexa_419_-23LUFS\\cbf6b3b19f83d9a3ee084e7fb7045f03.wav'
p344
aS'D:\\Rubidium\\Corpus\\Alexa\\Alexa_419_-23LUFS\\cc6291d39c98e146e3f3d1e44ce14073.wav'
p345
aS'D:\\Rubidium\\Corpus\\Alexa\\Alexa_419_-23LUFS\\cd074d982970cacf7ba94b939f53fd97.wav'
p346
aS'D:\\Rubidium\\Corpus\\Alexa\\Alexa_419_-23LUFS\\cd65c8b5899d5a1026a1610cfdca8a42.wav'
p347
aS'D:\\Rubidium\\Corpus\\Alexa\\Alexa_419_-23LUFS\\cdb799dd4176e3f3fe8b1653416c9091.wav'
p348
aS'D:\\Rubidium\\Corpus\\Alexa\\Alexa_419_-23LUFS\\ce10ccff0b3077a4936f8ec72db49514.wav'
p349
aS'D:\\Rubidium\\Corpus\\Alexa\\Alexa_419_-23LUFS\\ce2fa5fc465094783d7b9d76f80c60df.wav'
p350
aS'D:\\Rubidium\\Corpus\\Alexa\\Alexa_419_-23LUFS\\ce6ea777f44913e0b0b04d00bf54fd97.wav'
p351
aS'D:\\Rubidium\\Corpus\\Alexa\\Alexa_419_-23LUFS\\cf45f373217c9565a0d9ec71cb5a1647.wav'
p352
aS'D:\\Rubidium\\Corpus\\Alexa\\Alexa_419_-23LUFS\\cffc58c0cec9c129028f7ea53762a277.wav'
p353
aS'D:\\Rubidium\\Corpus\\Alexa\\Alexa_419_-23LUFS\\d002f5f80ead3442f1724d27dd386507.wav'
p354
aS'D:\\Rubidium\\Corpus\\Alexa\\Alexa_419_-23LUFS\\d04ed569b901d963cf25bdfe4626f782.wav'
p355
aS'D:\\Rubidium\\Corpus\\Alexa\\Alexa_419_-23LUFS\\d0bd415ec68ef6dcb3005e4d89da734b.wav'
p356
aS'D:\\Rubidium\\Corpus\\Alexa\\Alexa_419_-23LUFS\\d1ec90d1809c16f013abb23517ea8340.wav'
p357
aS'D:\\Rubidium\\Corpus\\Alexa\\Alexa_419_-23LUFS\\d2fd18d1017d37da5351a7a9e1a8751d.wav'
p358
aS'D:\\Rubidium\\Corpus\\Alexa\\Alexa_419_-23LUFS\\d337a4b310861994a9af50d7248f1183.wav'
p359
aS'D:\\Rubidium\\Corpus\\Alexa\\Alexa_419_-23LUFS\\d39965fd943a11199c3a968c80f2144f.wav'
p360
aS'D:\\Rubidium\\Corpus\\Alexa\\Alexa_419_-23LUFS\\d3bb06e7dca2c03c698848bc1b7aaa43.wav'
p361
aS'D:\\Rubidium\\Corpus\\Alexa\\Alexa_419_-23LUFS\\d456492f52a46efb650674d237d19447.wav'
p362
aS'D:\\Rubidium\\Corpus\\Alexa\\Alexa_419_-23LUFS\\d49a6ecd2549731b083bb225386f0705.wav'
p363
aS'D:\\Rubidium\\Corpus\\Alexa\\Alexa_419_-23LUFS\\d4ffac37dead9d8844415d3be5ec06ce.wav'
p364
aS'D:\\Rubidium\\Corpus\\Alexa\\Alexa_419_-23LUFS\\d5045a0e39dadf4fd0dcea070e05c436.wav'
p365
aS'D:\\Rubidium\\Corpus\\Alexa\\Alexa_419_-23LUFS\\d593fc60840e3d350a01338e45a4008f.wav'
p366
aS'D:\\Rubidium\\Corpus\\Alexa\\Alexa_419_-23LUFS\\d59b7e3e16c5d27d2e318a275a556a0c.wav'
p367
aS'D:\\Rubidium\\Corpus\\Alexa\\Alexa_419_-23LUFS\\d5bda0889b1100d1ca5d9879431c04a8.wav'
p368
aS'D:\\Rubidium\\Corpus\\Alexa\\Alexa_419_-23LUFS\\d5e2cccd8fe07a1b96b6016b573cd836.wav'
p369
aS'D:\\Rubidium\\Corpus\\Alexa\\Alexa_419_-23LUFS\\d69ec322c87362dd981b4bc253842b66.wav'
p370
aS'D:\\Rubidium\\Corpus\\Alexa\\Alexa_419_-23LUFS\\d71f7df617b48ab607da0206dcaa6af2.wav'
p371
aS'D:\\Rubidium\\Corpus\\Alexa\\Alexa_419_-23LUFS\\d7dcd09476a473cdf16575408114823b.wav'
p372
aS'D:\\Rubidium\\Corpus\\Alexa\\Alexa_419_-23LUFS\\d7f26096f1098a6ea37c76e2c1925a06.wav'
p373
aS'D:\\Rubidium\\Corpus\\Alexa\\Alexa_419_-23LUFS\\d82f50199c6209a9414c9c5a0f3ce2e0.wav'
p374
aS'D:\\Rubidium\\Corpus\\Alexa\\Alexa_419_-23LUFS\\d91234cb2b7d3c930afe55aed94b6732.wav'
p375
aS'D:\\Rubidium\\Corpus\\Alexa\\Alexa_419_-23LUFS\\d932ba38bb6f064be50943722a94abcb.wav'
p376
aS'D:\\Rubidium\\Corpus\\Alexa\\Alexa_419_-23LUFS\\da286596de1c2f05d09a3c8b5addffc4.wav'
p377
aS'D:\\Rubidium\\Corpus\\Alexa\\Alexa_419_-23LUFS\\dad7d1ca6f746dcae586ac67149fddcf.wav'
p378
aS'D:\\Rubidium\\Corpus\\Alexa\\Alexa_419_-23LUFS\\db69edf135cd41541b1001ea1350b99d.wav'
p379
aS'D:\\Rubidium\\Corpus\\Alexa\\Alexa_419_-23LUFS\\dc5474e4996d89881cbb0a13e11e2157.wav'
p380
aS'D:\\Rubidium\\Corpus\\Alexa\\Alexa_419_-23LUFS\\dd0938df7476778541654a2838a79ae7.wav'
p381
aS'D:\\Rubidium\\Corpus\\Alexa\\Alexa_419_-23LUFS\\dd2ce5c9ac62f17c5b50432029f828e3.wav'
p382
aS'D:\\Rubidium\\Corpus\\Alexa\\Alexa_419_-23LUFS\\de862a915c670c5d3f6337c2c8ea3e52.wav'
p383
aS'D:\\Rubidium\\Corpus\\Alexa\\Alexa_419_-23LUFS\\deb823181cb12d25c75940b3c8566863.wav'
p384
aS'D:\\Rubidium\\Corpus\\Alexa\\Alexa_419_-23LUFS\\df162c75a6f921fd93614179ff3b0e20.wav'
p385
aS'D:\\Rubidium\\Corpus\\Alexa\\Alexa_419_-23LUFS\\df94fb33d1df81b6fcfb1100ef378567.wav'
p386
aS'D:\\Rubidium\\Corpus\\Alexa\\Alexa_419_-23LUFS\\e0013c9bfe725728ba3cf67b79f22326.wav'
p387
aS'D:\\Rubidium\\Corpus\\Alexa\\Alexa_419_-23LUFS\\e13b739a41162e491101cf75f016f7f7.wav'
p388
aS'D:\\Rubidium\\Corpus\\Alexa\\Alexa_419_-23LUFS\\e2442788e3e47b530b2cedc6255510b7.wav'
p389
aS'D:\\Rubidium\\Corpus\\Alexa\\Alexa_419_-23LUFS\\e2a809b4a1d5b7b2e7ec38ec5de10c70.wav'
p390
aS'D:\\Rubidium\\Corpus\\Alexa\\Alexa_419_-23LUFS\\e2d4b100391a760a76b079ca59fa859d.wav'
p391
aS'D:\\Rubidium\\Corpus\\Alexa\\Alexa_419_-23LUFS\\e30abab293b155c29ce2122e2c241547.wav'
p392
aS'D:\\Rubidium\\Corpus\\Alexa\\Alexa_419_-23LUFS\\e481f842f2b8949c58fe58a740320678.wav'
p393
aS'D:\\Rubidium\\Corpus\\Alexa\\Alexa_419_-23LUFS\\e4af606a35f237ca780858c87892aebb.wav'
p394
aS'D:\\Rubidium\\Corpus\\Alexa\\Alexa_419_-23LUFS\\e50e318087985b788576dff0af4de8ae.wav'
p395
aS'D:\\Rubidium\\Corpus\\Alexa\\Alexa_419_-23LUFS\\e57825247256ba373be557b44b17e608.wav'
p396
aS'D:\\Rubidium\\Corpus\\Alexa\\Alexa_419_-23LUFS\\e6eef368a5fd1a3a3c7c91abd04ce848.wav'
p397
aS'D:\\Rubidium\\Corpus\\Alexa\\Alexa_419_-23LUFS\\e9683c23b00438028231aa5b7d460e3d.wav'
p398
aS'D:\\Rubidium\\Corpus\\Alexa\\Alexa_419_-23LUFS\\ebd44a45949ddf4e2cb7d5141ce06437.wav'
p399
aS'D:\\Rubidium\\Corpus\\Alexa\\Alexa_419_-23LUFS\\ec20cb9609542f96166145875a58a26a.wav'
p400
aS'D:\\Rubidium\\Corpus\\Alexa\\Alexa_419_-23LUFS\\ec7fafc996941222f988aa84200958e3.wav'
p401
aS'D:\\Rubidium\\Corpus\\Alexa\\Alexa_419_-23LUFS\\ed40800191912ddebf1e9c49d5191d3c.wav'
p402
aS'D:\\Rubidium\\Corpus\\Alexa\\Alexa_419_-23LUFS\\ed844556f8596cc97aeab96bda8de7e7.wav'
p403
aS'D:\\Rubidium\\Corpus\\Alexa\\Alexa_419_-23LUFS\\edbe6ff831dc3457e5fe4ad6677f9689.wav'
p404
aS'D:\\Rubidium\\Corpus\\Alexa\\Alexa_419_-23LUFS\\ee15ac43246eae98567fe9cbcf571d97.wav'
p405
aS'D:\\Rubidium\\Corpus\\Alexa\\Alexa_419_-23LUFS\\ee3dfb2dfbe8f67f82f60f6461a64181.wav'
p406
aS'D:\\Rubidium\\Corpus\\Alexa\\Alexa_419_-23LUFS\\eef563ba0561d4dfed82a35b418aac02.wav'
p407
aS'D:\\Rubidium\\Corpus\\Alexa\\Alexa_419_-23LUFS\\eef5e48b325743722ab7b02f7ba1af18.wav'
p408
aS'D:\\Rubidium\\Corpus\\Alexa\\Alexa_419_-23LUFS\\f0431402dc7fb9f6d3f57464299daec7.wav'
p409
aS'D:\\Rubidium\\Corpus\\Alexa\\Alexa_419_-23LUFS\\f15906fdde6b07e971558673663bf91a.wav'
p410
aS'D:\\Rubidium\\Corpus\\Alexa\\Alexa_419_-23LUFS\\f2914e2f0ca0b6dcb4047f5560acef67.wav'
p411
aS'D:\\Rubidium\\Corpus\\Alexa\\Alexa_419_-23LUFS\\f2a33c97b733c9a7ba680dbba4aca4d9.wav'
p412
aS'D:\\Rubidium\\Corpus\\Alexa\\Alexa_419_-23LUFS\\f46ce85c5c8f76a0b88380b93814d0db.wav'
p413
aS'D:\\Rubidium\\Corpus\\Alexa\\Alexa_419_-23LUFS\\f67e5791b7eff382a4c2eaea8fd33834.wav'
p414
aS'D:\\Rubidium\\Corpus\\Alexa\\Alexa_419_-23LUFS\\f825fb5fb32630f204bbdf3baabf4600.wav'
p415
aS'D:\\Rubidium\\Corpus\\Alexa\\Alexa_419_-23LUFS\\f8d520479f2759499d55615b540fb579.wav'
p416
aS'D:\\Rubidium\\Corpus\\Alexa\\Alexa_419_-23LUFS\\f9f826d3dc22a194a98b141284fa8ba3.wav'
p417
aS'D:\\Rubidium\\Corpus\\Alexa\\Alexa_419_-23LUFS\\fae0f0d6c7c513c4cf059fa58917eb52.wav'
p418
aS'D:\\Rubidium\\Corpus\\Alexa\\Alexa_419_-23LUFS\\fae3b312f0e68afa8446d84336fc7b94.wav'
p419
aS'D:\\Rubidium\\Corpus\\Alexa\\Alexa_419_-23LUFS\\fb911424d855a6bd772f850847968755.wav'
p420
aS'D:\\Rubidium\\Corpus\\Alexa\\Alexa_419_-23LUFS\\fccd7d76b5cff06fff1a0ea33a6118ad.wav'
p421
aS'D:\\Rubidium\\Corpus\\Alexa\\Alexa_419_-23LUFS\\fe6d319b00dc48a0bf76c76b58210cd1.wav'
p422
aS'D:\\Rubidium\\Corpus\\Alexa\\Alexa_419_-23LUFS\\fea095ea0ed3925616a0f33cf7e25284.wav'
p423
aS'D:\\Rubidium\\Corpus\\Alexa\\Alexa_419_-23LUFS\\ff15205663f7cce21d76428ba1508d01.wav'
p424
asS'delay_time'
p425
I5
sS'noise_file'
p426
S'D:\\Rubidium\\Corpus\\Noises_-23LUFS\\Car80_Noise_-23LUFS.wav'
p427
sS'DictionaryIndex'
p428
I0
s.